(lp0
S'poi'
p1
aS'salary'
p2
aS'total_payments'
p3
aS'expenses'
p4
aS'total_stock_value'
p5
aS'deferred_income'
p6
aS'deferral_payments'
p7
aS'restricted_stock_deferred'
p8
aS'loan_advances'
p9
aS'exercised_stock_options'
p10
aS'other'
p11
aS'long_term_incentive'
p12
aS'restricted_stock'
p13
aS'director_fees'
p14
aS'to_messages'
p15
aS'from_poi_to_this_person'
p16
aS'from_messages'
p17
aS'from_this_person_to_poi'
p18
aS'shared_receipt_with_poi'
p19
aS'mes_from_poi_ratio'
p20
aS'mes_to_poi_ratio'
p21
aS'all_poi_mes_ratio'
p22
a.